; Function Attrs: mustprogress uwtable
define hidden noundef zeroext i1 @_ZN18OpenImageIO_v2_6_08PSDInput11load_headerEv(ptr noundef nonnull align 8 dereferenceable(840) %this) local_unnamed_addr #5 align 2 {
entry:
  %call = tail call noundef zeroext i1 @_ZN18OpenImageIO_v2_6_08PSDInput11read_headerEv(ptr noundef nonnull align 8 dereferenceable(840) %this)
  br i1 %call, label %lor.lhs.false, label %return

lor.lhs.false:                                    ; preds = %entry
  %call2 = tail call noundef zeroext i1 @_ZN18OpenImageIO_v2_6_08PSDInput15validate_headerEv(ptr noundef nonnull align 8 dereferenceable(840) %this)
  br label %return

return:                                           ; preds = %lor.lhs.false, %entry
  %retval.0 = phi i1 [ false, %entry ], [ %call2, %lor.lhs.false ]
  ret i1 %retval.0
}